; Function Attrs: mustprogress nounwind uwtable
define hidden void @_ZN13ObjArrayKlass18oop_print_value_onEP7oopDescP12outputStream(ptr nocapture noundef nonnull readonly align 8 dereferenceable(232) %0, ptr noundef %1, ptr noundef nonnull %2) unnamed_addr #0 align 2 {
  tail call void (ptr, ptr, ...) @_ZN12outputStream5printEPKcz(ptr noundef nonnull align 8 dereferenceable(56) %2, ptr noundef nonnull @.str.15) #12
  %4 = getelementptr inbounds i8, ptr %0, i64 216
  %5 = load ptr, ptr %4, align 8
  %6 = load ptr, ptr %5, align 8
  %7 = getelementptr inbounds i8, ptr %6, i64 88
  %8 = load ptr, ptr %7, align 8
  tail call void %8(ptr noundef nonnull align 8 dereferenceable(8) %5, ptr noundef nonnull %2) #12
  %9 = load i8, ptr @UseCompressedClassPointers, align 1
  %10 = trunc i8 %9 to i1
  %11 = select i1 %10, i64 12, i64 16
  %12 = getelementptr inbounds i8, ptr %1, i64 %11
  %13 = load i32, ptr %12, align 4
  tail call void (ptr, ptr, ...) @_ZN12outputStream5printEPKcz(ptr noundef nonnull align 8 dereferenceable(56) %2, ptr noundef nonnull @.str.16, i32 noundef %13) #12
  tail call void @_ZNK7oopDesc16print_address_onEP12outputStream(ptr noundef nonnull align 8 dereferenceable(16) %1, ptr noundef nonnull %2) #12
  ret void
}